; Function Attrs: mustprogress nounwind uwtable
define internal void @_ZNSt23_Sp_counted_ptr_inplaceIN2cv6bgsegm12_GLOBAL__N_119BackgroundModelLSBPESaIvELN9__gnu_cxx12_Lock_policyE2EE10_M_disposeEv(ptr noundef nonnull readonly align 8 captures(none) dereferenceable(56) %0) unnamed_addr #13 align 2 personality ptr @__gxx_personality_v0 {
  %2 = getelementptr inbounds nuw i8, ptr %0, i64 16
  %.val = load ptr, ptr %2, align 8
  %.not.i.i.i.i.i.i = icmp eq ptr %.val, null
  br i1 %.not.i.i.i.i.i.i, label %_ZNSt16allocator_traitsISaIvEE7destroyIN2cv6bgsegm12_GLOBAL__N_119BackgroundModelLSBPEEEvRS0_PT_.exit, label %3

3:                                                ; preds = %1
  tail call void @_ZdlPv(ptr noundef nonnull %.val) #31
  br label %_ZNSt16allocator_traitsISaIvEE7destroyIN2cv6bgsegm12_GLOBAL__N_119BackgroundModelLSBPEEEvRS0_PT_.exit

_ZNSt16allocator_traitsISaIvEE7destroyIN2cv6bgsegm12_GLOBAL__N_119BackgroundModelLSBPEEEvRS0_PT_.exit: ; preds = %1, %3
  ret void
}